; ModuleID = '33/1847.c'
source_filename = "33/1847.c"
target datalayout = "e-m:e-p270:32:32-p271:32:32-p272:64:64-i64:64-f80:128-n8:16:32:64-S128"
target triple = "x86_64-pc-linux-gnu"

@.str = private unnamed_addr constant [3 x i8] c"%d\00", align 1
@.str.1 = private unnamed_addr constant [3 x i8] c"%s\00", align 1
@.str.2 = private unnamed_addr constant [4 x i8] c"%s\0A\00", align 1

; Function Attrs: noinline nounwind uwtable
define dso_local i32 @main() #0 {
  %1 = alloca i32, align 4
  %2 = alloca [255 x i8], align 16
  %3 = alloca [255 x i8], align 16
  %4 = alloca i32, align 4
  %5 = alloca i32, align 4
  %6 = alloca i32, align 4
  %7 = alloca [255 x i8], align 16
  %8 = alloca [255 x i8], align 16
  store i32 0, i32* %1, align 4
  %9 = bitcast [255 x i8]* %2 to i8*
  call void @llvm.memset.p0i8.i64(i8* align 16 %9, i8 0, i64 255, i1 false)
  %10 = bitcast [255 x i8]* %3 to i8*
  call void @llvm.memset.p0i8.i64(i8* align 16 %10, i8 0, i64 255, i1 false)
  %11 = call i32 (i8*, ...) @__isoc99_scanf(i8* getelementptr inbounds ([3 x i8], [3 x i8]* @.str, i64 0, i64 0), i32* %4)
  store i32 0, i32* %5, align 4
  br label %12

12:                                               ; preds = %79, %0
  %13 = load i32, i32* %5, align 4
  %14 = load i32, i32* %4, align 4
  %15 = icmp slt i32 %13, %14
  br i1 %15, label %16, label %82

16:                                               ; preds = %12
  %17 = bitcast [255 x i8]* %7 to i8*
  call void @llvm.memset.p0i8.i64(i8* align 16 %17, i8 0, i64 255, i1 false)
  %18 = bitcast [255 x i8]* %8 to i8*
  call void @llvm.memset.p0i8.i64(i8* align 16 %18, i8 0, i64 255, i1 false)
  %19 = getelementptr inbounds [255 x i8], [255 x i8]* %7, i64 0, i64 0
  %20 = call i32 (i8*, ...) @__isoc99_scanf(i8* getelementptr inbounds ([3 x i8], [3 x i8]* @.str.1, i64 0, i64 0), i8* %19)
  store i32 0, i32* %6, align 4
  br label %21

21:                                               ; preds = %73, %16
  %22 = load i32, i32* %6, align 4
  %23 = sext i32 %22 to i64
  %24 = getelementptr inbounds [255 x i8], [255 x i8]* %7, i64 0, i64 %23
  %25 = load i8, i8* %24, align 1
  %26 = sext i8 %25 to i32
  %27 = icmp ne i32 %26, 0
  br i1 %27, label %28, label %76

28:                                               ; preds = %21
  %29 = load i32, i32* %6, align 4
  %30 = sext i32 %29 to i64
  %31 = getelementptr inbounds [255 x i8], [255 x i8]* %7, i64 0, i64 %30
  %32 = load i8, i8* %31, align 1
  %33 = sext i8 %32 to i32
  %34 = icmp eq i32 %33, 65
  br i1 %34, label %35, label %39

35:                                               ; preds = %28
  %36 = load i32, i32* %6, align 4
  %37 = sext i32 %36 to i64
  %38 = getelementptr inbounds [255 x i8], [255 x i8]* %8, i64 0, i64 %37
  store i8 84, i8* %38, align 1
  br label %39

39:                                               ; preds = %35, %28
  %40 = load i32, i32* %6, align 4
  %41 = sext i32 %40 to i64
  %42 = getelementptr inbounds [255 x i8], [255 x i8]* %7, i64 0, i64 %41
  %43 = load i8, i8* %42, align 1
  %44 = sext i8 %43 to i32
  %45 = icmp eq i32 %44, 84
  br i1 %45, label %46, label %50

46:                                               ; preds = %39
  %47 = load i32, i32* %6, align 4
  %48 = sext i32 %47 to i64
  %49 = getelementptr inbounds [255 x i8], [255 x i8]* %8, i64 0, i64 %48
  store i8 65, i8* %49, align 1
  br label %50

50:                                               ; preds = %46, %39
  %51 = load i32, i32* %6, align 4
  %52 = sext i32 %51 to i64
  %53 = getelementptr inbounds [255 x i8], [255 x i8]* %7, i64 0, i64 %52
  %54 = load i8, i8* %53, align 1
  %55 = sext i8 %54 to i32
  %56 = icmp eq i32 %55, 67
  br i1 %56, label %57, label %61

57:                                               ; preds = %50
  %58 = load i32, i32* %6, align 4
  %59 = sext i32 %58 to i64
  %60 = getelementptr inbounds [255 x i8], [255 x i8]* %8, i64 0, i64 %59
  store i8 71, i8* %60, align 1
  br label %61

61:                                               ; preds = %57, %50
  %62 = load i32, i32* %6, align 4
  %63 = sext i32 %62 to i64
  %64 = getelementptr inbounds [255 x i8], [255 x i8]* %7, i64 0, i64 %63
  %65 = load i8, i8* %64, align 1
  %66 = sext i8 %65 to i32
  %67 = icmp eq i32 %66, 71
  br i1 %67, label %68, label %72

68:                                               ; preds = %61
  %69 = load i32, i32* %6, align 4
  %70 = sext i32 %69 to i64
  %71 = getelementptr inbounds [255 x i8], [255 x i8]* %8, i64 0, i64 %70
  store i8 67, i8* %71, align 1
  br label %72

72:                                               ; preds = %68, %61
  br label %73

73:                                               ; preds = %72
  %74 = load i32, i32* %6, align 4
  %75 = add nsw i32 %74, 1
  store i32 %75, i32* %6, align 4
  br label %21

76:                                               ; preds = %21
  %77 = getelementptr inbounds [255 x i8], [255 x i8]* %8, i64 0, i64 0
  %78 = call i32 (i8*, ...) @printf(i8* getelementptr inbounds ([4 x i8], [4 x i8]* @.str.2, i64 0, i64 0), i8* %77)
  br label %79

79:                                               ; preds = %76
  %80 = load i32, i32* %5, align 4
  %81 = add nsw i32 %80, 1
  store i32 %81, i32* %5, align 4
  br label %12

82:                                               ; preds = %12
  ret i32 0
}

; Function Attrs: argmemonly nounwind willreturn
declare void @llvm.memset.p0i8.i64(i8* nocapture writeonly, i8, i64, i1 immarg) #1

declare dso_local i32 @__isoc99_scanf(i8*, ...) #2

declare dso_local i32 @printf(i8*, ...) #2


!llvm.module.flags = !{!0}
!llvm.ident = !{!1}

!0 = !{i32 1, !"wchar_size", i32 4}
!1 = !{!"clang version 10.0.0-4ubuntu1 "}
